target datalayout = "e-m:e-p270:32:32-p271:32:32-p272:64:64-i64:64-i128:128-f80:128-n8:16:32:64-S128"
target triple = "x86_64-pc-linux-gnu"

%struct.task = type { ptr, double, i32 }

; Function Attrs: nounwind uwtable
define internal i32 @tasks_compare(ptr noundef %0, ptr noundef %1) #0 {
  %3 = alloca i32, align 4
  %4 = alloca ptr, align 8
  %5 = alloca ptr, align 8
  %6 = alloca ptr, align 8
  %7 = alloca ptr, align 8
  store ptr %0, ptr %4, align 8
  store ptr %1, ptr %5, align 8
  %8 = load ptr, ptr %4, align 8
  store ptr %8, ptr %6, align 8
  %9 = load ptr, ptr %5, align 8
  store ptr %9, ptr %7, align 8
  %10 = load ptr, ptr %6, align 8
  %11 = getelementptr inbounds %struct.task, ptr %10, i32 0, i32 1
  %12 = load double, ptr %11, align 8
  %13 = load ptr, ptr %7, align 8
  %14 = getelementptr inbounds %struct.task, ptr %13, i32 0, i32 1
  %15 = load double, ptr %14, align 8
  %16 = fcmp olt double %12, %15
  br i1 %16, label %17, label %18

17:                                               ; preds = %2
  store i32 1, ptr %3, align 4
  br label %28

18:                                               ; preds = %2
  %19 = load ptr, ptr %6, align 8
  %20 = getelementptr inbounds %struct.task, ptr %19, i32 0, i32 1
  %21 = load double, ptr %20, align 8
  %22 = load ptr, ptr %7, align 8
  %23 = getelementptr inbounds %struct.task, ptr %22, i32 0, i32 1
  %24 = load double, ptr %23, align 8
  %25 = fcmp ogt double %21, %24
  br i1 %25, label %26, label %27

26:                                               ; preds = %18
  store i32 -1, ptr %3, align 4
  br label %28

27:                                               ; preds = %18
  store i32 0, ptr %3, align 4
  br label %28

28:                                               ; preds = %27, %26, %17
  %29 = load i32, ptr %3, align 4
  ret i32 %29
}