; Function Attrs: mustprogress nofree norecurse nosync nounwind willreturn memory(argmem: read) uwtable
define internal i32 @tasks_compare(ptr nocapture noundef readonly %0, ptr nocapture noundef readonly %1) #12 {
  %3 = getelementptr inbounds i8, ptr %0, i64 8
  %4 = load double, ptr %3, align 8
  %5 = getelementptr inbounds i8, ptr %1, i64 8
  %6 = load double, ptr %5, align 8
  %7 = fcmp olt double %4, %6
  %8 = fcmp ogt double %4, %6
  %. = sext i1 %8 to i32
  %.0 = select i1 %7, i32 1, i32 %.
  ret i32 %.0
}